target datalayout = "e-m:e-p270:32:32-p271:32:32-p272:64:64-i64:64-i128:128-f80:128-n8:16:32:64-S128"
target triple = "x86_64-pc-linux-gnu"

%struct.MatchingTransform = type { %"class.vcg::Point2", [4 x double] }
%"class.vcg::Point2" = type { [2 x double] }
%"struct.std::_Vector_base" = type { %"struct.std::_Vector_base<vcg::Point2<double>, std::allocator<vcg::Point2<double>>>::_Vector_impl" }
%"struct.std::_Vector_base<vcg::Point2<double>, std::allocator<vcg::Point2<double>>>::_Vector_impl" = type { %"struct.std::_Vector_base<vcg::Point2<double>, std::allocator<vcg::Point2<double>>>::_Vector_impl_data" }
%"struct.std::_Vector_base<vcg::Point2<double>, std::allocator<vcg::Point2<double>>>::_Vector_impl_data" = type { ptr, ptr, ptr }

@.str.4 = private unnamed_addr constant [183 x i8] c"generated/home/dtcxzyw/WorkSpace/Projects/compilers/llvm-opt-benchmark/bench/meshlab/meshlab/src/meshlabplugins/filter_texture_defragmentation/TextureDefragmentation/src/matching.cpp\00", align 1
@.str.15 = private unnamed_addr constant [33 x i8] c"points1.size() == points2.size()\00", align 1

; Function Attrs: mustprogress nounwind uwtable
define linkonce_odr noundef double @_ZN3vcg4math4SqrtEd(double noundef %0) #4 comdat {
  %2 = alloca double, align 8
  store double %0, ptr %2, align 8
  %3 = load double, ptr %2, align 8
  %4 = call double @sqrt(double noundef %3) #3
  ret double %4
}

; Function Attrs: mustprogress nounwind uwtable
define linkonce_odr void @_ZN3vcg6Point2IdEC2Edd(ptr noundef nonnull align 8 dereferenceable(16) %0, double noundef %1, double noundef %2) unnamed_addr #4 comdat align 2 {
  %4 = alloca ptr, align 8
  %5 = alloca double, align 8
  %6 = alloca double, align 8
  store ptr %0, ptr %4, align 8
  store double %1, ptr %5, align 8
  store double %2, ptr %6, align 8
  %7 = load ptr, ptr %4, align 8
  %8 = load double, ptr %5, align 8
  %9 = getelementptr inbounds %"class.vcg::Point2", ptr %7, i32 0, i32 0
  %10 = getelementptr inbounds [2 x double], ptr %9, i64 0, i64 0
  store double %8, ptr %10, align 8
  %11 = load double, ptr %6, align 8
  %12 = getelementptr inbounds %"class.vcg::Point2", ptr %7, i32 0, i32 0
  %13 = getelementptr inbounds [2 x double], ptr %12, i64 0, i64 1
  store double %11, ptr %13, align 8
  ret void
}

; Function Attrs: mustprogress nounwind uwtable
define linkonce_odr noundef nonnull align 8 dereferenceable(8) ptr @_ZNK3vcg6Point2IdE1YEv(ptr noundef nonnull align 8 dereferenceable(16) %0) #4 comdat align 2 {
  %2 = alloca ptr, align 8
  store ptr %0, ptr %2, align 8
  %3 = load ptr, ptr %2, align 8
  %4 = getelementptr inbounds %"class.vcg::Point2", ptr %3, i32 0, i32 0
  %5 = getelementptr inbounds [2 x double], ptr %4, i64 0, i64 1
  ret ptr %5
}

; Function Attrs: mustprogress nounwind uwtable
define linkonce_odr noundef nonnull align 8 dereferenceable(8) ptr @_ZNK3vcg6Point2IdE1XEv(ptr noundef nonnull align 8 dereferenceable(16) %0) #4 comdat align 2 {
  %2 = alloca ptr, align 8
  store ptr %0, ptr %2, align 8
  %3 = load ptr, ptr %2, align 8
  %4 = getelementptr inbounds %"class.vcg::Point2", ptr %3, i32 0, i32 0
  %5 = getelementptr inbounds [2 x double], ptr %4, i64 0, i64 0
  ret ptr %5
}

; Function Attrs: mustprogress uwtable
define linkonce_odr noundef double @_ZNK3vcg6Point2IdE4NormEv(ptr noundef nonnull align 8 dereferenceable(16) %0) #5 comdat align 2 {
  %2 = alloca ptr, align 8
  store ptr %0, ptr %2, align 8
  %3 = load ptr, ptr %2, align 8
  %4 = getelementptr inbounds %"class.vcg::Point2", ptr %3, i32 0, i32 0
  %5 = getelementptr inbounds [2 x double], ptr %4, i64 0, i64 0
  %6 = load double, ptr %5, align 8
  %7 = getelementptr inbounds %"class.vcg::Point2", ptr %3, i32 0, i32 0
  %8 = getelementptr inbounds [2 x double], ptr %7, i64 0, i64 0
  %9 = load double, ptr %8, align 8
  %10 = getelementptr inbounds %"class.vcg::Point2", ptr %3, i32 0, i32 0
  %11 = getelementptr inbounds [2 x double], ptr %10, i64 0, i64 1
  %12 = load double, ptr %11, align 8
  %13 = getelementptr inbounds %"class.vcg::Point2", ptr %3, i32 0, i32 0
  %14 = getelementptr inbounds [2 x double], ptr %13, i64 0, i64 1
  %15 = load double, ptr %14, align 8
  %16 = fmul double %12, %15
  %17 = call double @llvm.fmuladd.f64(double %6, double %9, double %16)
  %18 = call noundef double @_ZN3vcg4math4SqrtEd(double noundef %17)
  ret double %18
}

; Function Attrs: mustprogress uwtable
define linkonce_odr { double, double } @_ZNK3vcg6Point2IdEmiERKS1_(ptr noundef nonnull align 8 dereferenceable(16) %0, ptr noundef nonnull align 8 dereferenceable(16) %1) #5 comdat align 2 {
  %3 = alloca %"class.vcg::Point2", align 8
  %4 = alloca ptr, align 8
  %5 = alloca ptr, align 8
  store ptr %0, ptr %4, align 8
  store ptr %1, ptr %5, align 8
  %6 = load ptr, ptr %4, align 8
  %7 = getelementptr inbounds %"class.vcg::Point2", ptr %6, i32 0, i32 0
  %8 = getelementptr inbounds [2 x double], ptr %7, i64 0, i64 0
  %9 = load double, ptr %8, align 8
  %10 = load ptr, ptr %5, align 8
  %11 = getelementptr inbounds %"class.vcg::Point2", ptr %10, i32 0, i32 0
  %12 = getelementptr inbounds [2 x double], ptr %11, i64 0, i64 0
  %13 = load double, ptr %12, align 8
  %14 = fsub double %9, %13
  %15 = getelementptr inbounds %"class.vcg::Point2", ptr %6, i32 0, i32 0
  %16 = getelementptr inbounds [2 x double], ptr %15, i64 0, i64 1
  %17 = load double, ptr %16, align 8
  %18 = load ptr, ptr %5, align 8
  %19 = getelementptr inbounds %"class.vcg::Point2", ptr %18, i32 0, i32 0
  %20 = getelementptr inbounds [2 x double], ptr %19, i64 0, i64 1
  %21 = load double, ptr %20, align 8
  %22 = fsub double %17, %21
  call void @_ZN3vcg6Point2IdEC2Edd(ptr noundef nonnull align 8 dereferenceable(16) %3, double noundef %14, double noundef %22)
  %23 = getelementptr inbounds %"class.vcg::Point2", ptr %3, i32 0, i32 0
  %24 = load { double, double }, ptr %23, align 8
  ret { double, double } %24
}

; Function Attrs: mustprogress uwtable
define linkonce_odr { double, double } @_ZNK17MatchingTransform5ApplyERKN3vcg6Point2IdEE(ptr noundef nonnull align 8 dereferenceable(48) %0, ptr noundef nonnull align 8 dereferenceable(16) %1) #5 comdat align 2 {
  %3 = alloca %"class.vcg::Point2", align 8
  %4 = alloca ptr, align 8
  %5 = alloca ptr, align 8
  store ptr %0, ptr %4, align 8
  store ptr %1, ptr %5, align 8
  %6 = load ptr, ptr %4, align 8
  %7 = getelementptr inbounds %struct.MatchingTransform, ptr %6, i32 0, i32 1
  %8 = getelementptr inbounds [4 x double], ptr %7, i64 0, i64 0
  %9 = load double, ptr %8, align 8
  %10 = load ptr, ptr %5, align 8
  %11 = call noundef nonnull align 8 dereferenceable(8) ptr @_ZNK3vcg6Point2IdE1XEv(ptr noundef nonnull align 8 dereferenceable(16) %10)
  %12 = load double, ptr %11, align 8
  %13 = getelementptr inbounds %struct.MatchingTransform, ptr %6, i32 0, i32 1
  %14 = getelementptr inbounds [4 x double], ptr %13, i64 0, i64 1
  %15 = load double, ptr %14, align 8
  %16 = load ptr, ptr %5, align 8
  %17 = call noundef nonnull align 8 dereferenceable(8) ptr @_ZNK3vcg6Point2IdE1YEv(ptr noundef nonnull align 8 dereferenceable(16) %16)
  %18 = load double, ptr %17, align 8
  %19 = fmul double %15, %18
  %20 = call double @llvm.fmuladd.f64(double %9, double %12, double %19)
  %21 = getelementptr inbounds %struct.MatchingTransform, ptr %6, i32 0, i32 0
  %22 = call noundef nonnull align 8 dereferenceable(8) ptr @_ZNK3vcg6Point2IdE1XEv(ptr noundef nonnull align 8 dereferenceable(16) %21)
  %23 = load double, ptr %22, align 8
  %24 = fadd double %20, %23
  %25 = getelementptr inbounds %struct.MatchingTransform, ptr %6, i32 0, i32 1
  %26 = getelementptr inbounds [4 x double], ptr %25, i64 0, i64 2
  %27 = load double, ptr %26, align 8
  %28 = load ptr, ptr %5, align 8
  %29 = call noundef nonnull align 8 dereferenceable(8) ptr @_ZNK3vcg6Point2IdE1XEv(ptr noundef nonnull align 8 dereferenceable(16) %28)
  %30 = load double, ptr %29, align 8
  %31 = getelementptr inbounds %struct.MatchingTransform, ptr %6, i32 0, i32 1
  %32 = getelementptr inbounds [4 x double], ptr %31, i64 0, i64 3
  %33 = load double, ptr %32, align 8
  %34 = load ptr, ptr %5, align 8
  %35 = call noundef nonnull align 8 dereferenceable(8) ptr @_ZNK3vcg6Point2IdE1YEv(ptr noundef nonnull align 8 dereferenceable(16) %34)
  %36 = load double, ptr %35, align 8
  %37 = fmul double %33, %36
  %38 = call double @llvm.fmuladd.f64(double %27, double %30, double %37)
  %39 = getelementptr inbounds %struct.MatchingTransform, ptr %6, i32 0, i32 0
  %40 = call noundef nonnull align 8 dereferenceable(8) ptr @_ZNK3vcg6Point2IdE1YEv(ptr noundef nonnull align 8 dereferenceable(16) %39)
  %41 = load double, ptr %40, align 8
  %42 = fadd double %38, %41
  call void @_ZN3vcg6Point2IdEC2Edd(ptr noundef nonnull align 8 dereferenceable(16) %3, double noundef %24, double noundef %42)
  %43 = getelementptr inbounds %"class.vcg::Point2", ptr %3, i32 0, i32 0
  %44 = load { double, double }, ptr %43, align 8
  ret { double, double } %44
}

; Function Attrs: mustprogress nounwind uwtable
define linkonce_odr noundef nonnull align 8 dereferenceable(16) ptr @_ZNKSt6vectorIN3vcg6Point2IdEESaIS2_EEixEm(ptr noundef nonnull align 8 dereferenceable(24) %0, i64 noundef %1) #4 comdat align 2 {
  %3 = alloca ptr, align 8
  %4 = alloca i64, align 8
  store ptr %0, ptr %3, align 8
  store i64 %1, ptr %4, align 8
  %5 = load ptr, ptr %3, align 8
  %6 = getelementptr inbounds %"struct.std::_Vector_base", ptr %5, i32 0, i32 0
  %7 = getelementptr inbounds %"struct.std::_Vector_base<vcg::Point2<double>, std::allocator<vcg::Point2<double>>>::_Vector_impl_data", ptr %6, i32 0, i32 0
  %8 = load ptr, ptr %7, align 8
  %9 = load i64, ptr %4, align 8
  %10 = getelementptr inbounds %"class.vcg::Point2", ptr %8, i64 %9
  ret ptr %10
}

; Function Attrs: mustprogress nounwind uwtable
define linkonce_odr noundef i64 @_ZNKSt6vectorIN3vcg6Point2IdEESaIS2_EE4sizeEv(ptr noundef nonnull align 8 dereferenceable(24) %0) #4 comdat align 2 {
  %2 = alloca ptr, align 8
  store ptr %0, ptr %2, align 8
  %3 = load ptr, ptr %2, align 8
  %4 = getelementptr inbounds %"struct.std::_Vector_base", ptr %3, i32 0, i32 0
  %5 = getelementptr inbounds %"struct.std::_Vector_base<vcg::Point2<double>, std::allocator<vcg::Point2<double>>>::_Vector_impl_data", ptr %4, i32 0, i32 1
  %6 = load ptr, ptr %5, align 8
  %7 = getelementptr inbounds %"struct.std::_Vector_base", ptr %3, i32 0, i32 0
  %8 = getelementptr inbounds %"struct.std::_Vector_base<vcg::Point2<double>, std::allocator<vcg::Point2<double>>>::_Vector_impl_data", ptr %7, i32 0, i32 0
  %9 = load ptr, ptr %8, align 8
  %10 = ptrtoint ptr %6 to i64
  %11 = ptrtoint ptr %9 to i64
  %12 = sub i64 %10, %11
  %13 = sdiv exact i64 %12, 16
  ret i64 %13
}

; Function Attrs: mustprogress uwtable
define noundef double @_Z20MatchingErrorAverageRK17MatchingTransformRKSt6vectorIN3vcg6Point2IdEESaIS5_EES9_(ptr noundef nonnull align 8 dereferenceable(48) %0, ptr noundef nonnull align 8 dereferenceable(24) %1, ptr noundef nonnull align 8 dereferenceable(24) %2) #5 {
  %4 = alloca ptr, align 8
  %5 = alloca ptr, align 8
  %6 = alloca ptr, align 8
  %7 = alloca double, align 8
  %8 = alloca i32, align 4
  %9 = alloca %"class.vcg::Point2", align 8
  %10 = alloca %"class.vcg::Point2", align 8
  store ptr %0, ptr %4, align 8
  store ptr %1, ptr %5, align 8
  store ptr %2, ptr %6, align 8
  %11 = load ptr, ptr %5, align 8
  %12 = call noundef i64 @_ZNKSt6vectorIN3vcg6Point2IdEESaIS2_EE4sizeEv(ptr noundef nonnull align 8 dereferenceable(24) %11) #3
  %13 = load ptr, ptr %6, align 8
  %14 = call noundef i64 @_ZNKSt6vectorIN3vcg6Point2IdEESaIS2_EE4sizeEv(ptr noundef nonnull align 8 dereferenceable(24) %13) #3
  %15 = icmp eq i64 %12, %14
  br i1 %15, label %16, label %17

16:                                               ; preds = %3
  br label %19

17:                                               ; preds = %3
  call void @_Z11ensure_failPKcS0_j(ptr noundef @.str.15, ptr noundef @.str.4, i32 noundef 190) #19
  unreachable

18:                                               ; No predecessors!
  br label %19

19:                                               ; preds = %18, %16
  store double 0.000000e+00, ptr %7, align 8
  store i32 0, ptr %8, align 4
  br label %20

20:                                               ; preds = %51, %19
  %21 = load i32, ptr %8, align 4
  %22 = zext i32 %21 to i64
  %23 = load ptr, ptr %5, align 8
  %24 = call noundef i64 @_ZNKSt6vectorIN3vcg6Point2IdEESaIS2_EE4sizeEv(ptr noundef nonnull align 8 dereferenceable(24) %23) #3
  %25 = icmp ult i64 %22, %24
  br i1 %25, label %26, label %54

26:                                               ; preds = %20
  %27 = load ptr, ptr %5, align 8
  %28 = load i32, ptr %8, align 4
  %29 = zext i32 %28 to i64
  %30 = call noundef nonnull align 8 dereferenceable(16) ptr @_ZNKSt6vectorIN3vcg6Point2IdEESaIS2_EEixEm(ptr noundef nonnull align 8 dereferenceable(24) %27, i64 noundef %29) #3
  %31 = load ptr, ptr %4, align 8
  %32 = load ptr, ptr %6, align 8
  %33 = load i32, ptr %8, align 4
  %34 = zext i32 %33 to i64
  %35 = call noundef nonnull align 8 dereferenceable(16) ptr @_ZNKSt6vectorIN3vcg6Point2IdEESaIS2_EEixEm(ptr noundef nonnull align 8 dereferenceable(24) %32, i64 noundef %34) #3
  %36 = call { double, double } @_ZNK17MatchingTransform5ApplyERKN3vcg6Point2IdEE(ptr noundef nonnull align 8 dereferenceable(48) %31, ptr noundef nonnull align 8 dereferenceable(16) %35)
  %37 = getelementptr inbounds %"class.vcg::Point2", ptr %10, i32 0, i32 0
  %38 = getelementptr inbounds { double, double }, ptr %37, i32 0, i32 0
  %39 = extractvalue { double, double } %36, 0
  store double %39, ptr %38, align 8
  %40 = getelementptr inbounds { double, double }, ptr %37, i32 0, i32 1
  %41 = extractvalue { double, double } %36, 1
  store double %41, ptr %40, align 8
  %42 = call { double, double } @_ZNK3vcg6Point2IdEmiERKS1_(ptr noundef nonnull align 8 dereferenceable(16) %30, ptr noundef nonnull align 8 dereferenceable(16) %10)
  %43 = getelementptr inbounds %"class.vcg::Point2", ptr %9, i32 0, i32 0
  %44 = getelementptr inbounds { double, double }, ptr %43, i32 0, i32 0
  %45 = extractvalue { double, double } %42, 0
  store double %45, ptr %44, align 8
  %46 = getelementptr inbounds { double, double }, ptr %43, i32 0, i32 1
  %47 = extractvalue { double, double } %42, 1
  store double %47, ptr %46, align 8
  %48 = call noundef double @_ZNK3vcg6Point2IdE4NormEv(ptr noundef nonnull align 8 dereferenceable(16) %9)
  %49 = load double, ptr %7, align 8
  %50 = fadd double %49, %48
  store double %50, ptr %7, align 8
  br label %51

51:                                               ; preds = %26
  %52 = load i32, ptr %8, align 4
  %53 = add i32 %52, 1
  store i32 %53, ptr %8, align 4
  br label %20, !llvm.loop !453

54:                                               ; preds = %20
  %55 = load double, ptr %7, align 8
  %56 = load ptr, ptr %5, align 8
  %57 = call noundef i64 @_ZNKSt6vectorIN3vcg6Point2IdEESaIS2_EE4sizeEv(ptr noundef nonnull align 8 dereferenceable(24) %56) #3
  %58 = uitofp i64 %57 to double
  %59 = fdiv double %55, %58
  ret double %59
}

; Function Attrs: mustprogress uwtable
define noundef double @_Z13MatchingErrorRK17MatchingTransformRKSt6vectorIN3vcg6Point2IdEESaIS5_EES9_(ptr noundef nonnull align 8 dereferenceable(48) %0, ptr noundef nonnull align 8 dereferenceable(24) %1, ptr noundef nonnull align 8 dereferenceable(24) %2) #5 {
  %4 = alloca ptr, align 8
  %5 = alloca ptr, align 8
  %6 = alloca ptr, align 8
  store ptr %0, ptr %4, align 8
  store ptr %1, ptr %5, align 8
  store ptr %2, ptr %6, align 8
  %7 = load ptr, ptr %4, align 8
  %8 = load ptr, ptr %5, align 8
  %9 = load ptr, ptr %6, align 8
  %10 = call noundef double @_Z20MatchingErrorAverageRK17MatchingTransformRKSt6vectorIN3vcg6Point2IdEESaIS5_EES9_(ptr noundef nonnull align 8 dereferenceable(48) %7, ptr noundef nonnull align 8 dereferenceable(24) %8, ptr noundef nonnull align 8 dereferenceable(24) %9)
  ret double %10
}