; Function Attrs: mustprogress uwtable
define noundef double @_Z13MatchingErrorRK17MatchingTransformRKSt6vectorIN3vcg6Point2IdEESaIS5_EES9_(ptr nocapture noundef nonnull readonly align 8 dereferenceable(48) %0, ptr nocapture noundef nonnull readonly align 8 dereferenceable(24) %1, ptr nocapture noundef nonnull readonly align 8 dereferenceable(24) %2) local_unnamed_addr #8 {
  %4 = getelementptr inbounds i8, ptr %1, i64 8
  %5 = load ptr, ptr %4, align 8
  %6 = load ptr, ptr %1, align 8
  %7 = ptrtoint ptr %5 to i64
  %8 = ptrtoint ptr %6 to i64
  %9 = sub i64 %7, %8
  %10 = ashr exact i64 %9, 4
  %11 = getelementptr inbounds i8, ptr %2, i64 8
  %12 = load ptr, ptr %11, align 8
  %13 = load ptr, ptr %2, align 8
  %14 = ptrtoint ptr %12 to i64
  %15 = ptrtoint ptr %13 to i64
  %16 = sub i64 %14, %15
  %17 = icmp eq i64 %9, %16
  br i1 %17, label %.preheader.i, label %29

.preheader.i:                                     ; preds = %3
  %.not.i = icmp eq ptr %5, %6
  br i1 %.not.i, label %_Z20MatchingErrorAverageRK17MatchingTransformRKSt6vectorIN3vcg6Point2IdEESaIS5_EES9_.exit, label %.lr.ph.i

.lr.ph.i:                                         ; preds = %.preheader.i
  %18 = getelementptr inbounds i8, ptr %0, i64 16
  %19 = load double, ptr %18, align 8
  %20 = getelementptr inbounds i8, ptr %0, i64 24
  %21 = load double, ptr %20, align 8
  %22 = load double, ptr %0, align 8
  %23 = getelementptr inbounds i8, ptr %0, i64 32
  %24 = load double, ptr %23, align 8
  %25 = getelementptr inbounds i8, ptr %0, i64 40
  %26 = load double, ptr %25, align 8
  %27 = getelementptr inbounds i8, ptr %0, i64 8
  %28 = load double, ptr %27, align 8
  br label %30

29:                                               ; preds = %3
  tail call void @_Z11ensure_failPKcS0_j(ptr noundef nonnull @.str.15, ptr noundef nonnull @.str.4, i32 noundef 190) #22
  unreachable

30:                                               ; preds = %30, %.lr.ph.i
  %31 = phi i64 [ 0, %.lr.ph.i ], [ %52, %30 ]
  %.019.i = phi i32 [ 0, %.lr.ph.i ], [ %51, %30 ]
  %.01218.i = phi double [ 0.000000e+00, %.lr.ph.i ], [ %50, %30 ]
  %32 = getelementptr inbounds %"class.vcg::Point2", ptr %6, i64 %31
  %33 = getelementptr inbounds %"class.vcg::Point2", ptr %13, i64 %31
  %34 = load double, ptr %33, align 8
  %35 = getelementptr inbounds i8, ptr %33, i64 8
  %36 = load double, ptr %35, align 8
  %37 = fmul double %21, %36
  %38 = tail call double @llvm.fmuladd.f64(double %19, double %34, double %37)
  %39 = fadd double %22, %38
  %40 = fmul double %26, %36
  %41 = tail call double @llvm.fmuladd.f64(double %24, double %34, double %40)
  %42 = fadd double %28, %41
  %43 = load double, ptr %32, align 8
  %44 = fsub double %43, %39
  %45 = getelementptr inbounds i8, ptr %32, i64 8
  %46 = load double, ptr %45, align 8
  %47 = fsub double %46, %42
  %48 = fmul double %47, %47
  %49 = tail call double @llvm.fmuladd.f64(double %44, double %44, double %48)
  %sqrt.i.i = tail call noundef double @llvm.sqrt.f64(double %49)
  %50 = fadd double %.01218.i, %sqrt.i.i
  %51 = add i32 %.019.i, 1
  %52 = zext i32 %51 to i64
  %53 = icmp ugt i64 %10, %52
  br i1 %53, label %30, label %_Z20MatchingErrorAverageRK17MatchingTransformRKSt6vectorIN3vcg6Point2IdEESaIS5_EES9_.exit, !llvm.loop !729

_Z20MatchingErrorAverageRK17MatchingTransformRKSt6vectorIN3vcg6Point2IdEESaIS5_EES9_.exit: ; preds = %30, %.preheader.i
  %.012.lcssa.i = phi double [ 0.000000e+00, %.preheader.i ], [ %50, %30 ]
  %54 = uitofp i64 %10 to double
  %55 = fdiv double %.012.lcssa.i, %54
  ret double %55
}